1     0000              	org	$d000
2     0000              
3     0000  CD 42 00    	call	init
4     0003              
5     0003  01 78 00    	ld	bc, 120
6     0006              .loop
7     0006  ED 43 40 00 	ld	(xpos), bc
8     000A  CD 6E 00    	call	vblank
9     000D  CD 6E 00    	call	vblank
10    0010  CD 6E 00    	call	vblank
11    0013  CD 6E 00    	call	vblank
12    0016  CD 55 00    	call	scrl
13    0019              
14    0019  21 7B 00    	ld	hl, data
15    001C  ED 4B 40 00 	ld	bc, (xpos)
16    0020  0D          	dec	c
17    0021  09          	add	hl, bc
18    0022  11 58 F5    	ld	de, $f300+120*5
19    0025  06 0B       	ld	b, 11
20    0027              .L1
21    0027  C5          	push	bc
22    0028  7E          	ld	a, (hl)
23    0029  12          	ld	(de), a
24    002A  01 78 00    	ld	bc, 120
25    002D  09          	add	hl, bc
26    002E  EB          	ex	de, hl
27    002F  09          	add	hl, bc
28    0030  EB          	ex	de, hl
29    0031  C1          	pop	bc
30    0032  10 F3       	djnz	L1
31    0034              
32    0034  ED 4B 40 00 	ld	bc, (xpos)
33    0038  0D          	dec	c
34    0039  C2 06 00    	jp	nz, loop
35    003C              .L99
36    003C  76          	halt
37    003D  C3 3C 00    	jp	L99
38    0040              
39    0040  00 00       .xpos	ds	2
40    0042              
41    0042              init:
42    0042  21 4F 00    	ld	hl, color
43    0045  CD 51 09    	call	$0951		; color
44    0048  01 19 50    	ld	bc, 80*256+25
45    004B  CD 3A 09    	call	$093a		; width
46    004E  C9          	ret
47    004F              
48    004F  30 2C 30 2C 31 00 
                        .color	db	"0,0,1", 0
49    0055              
50    0055              scrl:
51    0055  21 A6 F5    	ld	hl, $f300+120*5+78
52    0058  11 A7 F5    	ld	de, $f300+120*5+79
53    005B  06 0B       	ld	b, 11
54    005D              .scrl1
55    005D  C5          	push	bc
56    005E  01 4F 00    	ld	bc, 79
57    0061  ED B8       	lddr
58    0063  01 C7 00    	ld	bc, 120+79
59    0066  09          	add	hl, bc
60    0067  EB          	ex	de, hl
61    0068  09          	add	hl, bc
62    0069  EB          	ex	de, hl
63    006A  C1          	pop	bc
64    006B  10 F0       	djnz	scrl1
65    006D  C9          	ret
66    006E              
67    006E              vblank:
68    006E              .wait1
69    006E  DB 40       	in	a, ($40)
70    0070  E6 20       	and	$20
71    0072  20 FA       	jr	nz, wait1
72    0074              .wait2
73    0074  DB 40       	in	a, ($40)
74    0076  E6 20       	and	$20
75    0078  28 FA       	jr	z, wait2
76    007A  C9          	ret
77    007B              
78    007B  FF F7 F5 B5 A5 25 05 01 FF F7 F5 B5 A5 25 05 01 FF F7 F5 B5 A5 25 05 01 FF F7 F5 B5 A5 25 05 01 
      009B  FF F7 F5 B5 A5 25 05 01 FF F7 F5 B5 A5 25 05 01 FF F7 F5 B5 A5 25 05 01 FF F7 F5 B5 A5 25 05 01 
      00BB  FF F7 F5 B5 A5 25 05 01 FF F7 F5 B5 A5 25 05 01 FF F7 F5 B5 A5 25 05 01 FF F7 F5 B5 A5 25 05 01 
      00DB  FF F7 F5 B5 A5 25 05 01 FF F7 F5 B5 A5 25 05 01 FF F7 F5 B5 A5 25 05 01 
                        data:	db	$ff,$f7,$f5,$b5,$a5,$25,$05,$01,$ff,$f7,$f5,$b5,$a5,$25,$05,$01,$ff,$f7,$f5,$b5,$a5,$25,$05,$01,$ff,$f7,$f5,$b5,$a5,$25,$05,$01,$ff,$f7,$f5,$b5,$a5,$25,$05,$01,$ff,$f7,$f5,$b5,$a5,$25,$05,$01,$ff,$f7,$f5,$b5,$a5,$25,$05,$01,$ff,$f7,$f5,$b5,$a5,$25,$05,$01,$ff,$f7,$f5,$b5,$a5,$25,$05,$01,$ff,$f7,$f5,$b5,$a5,$25,$05,$01,$ff,$f7,$f5,$b5,$a5,$25,$05,$01,$ff,$f7,$f5,$b5,$a5,$25,$05,$01,$ff,$f7,$f5,$b5,$a5,$25,$05,$01,$ff,$f7,$f5,$b5,$a5,$25,$05,$01,$ff,$f7,$f5,$b5,$a5,$25,$05,$01
79    00F3  FF F7 F5 B5 A5 25 05 01 FF F7 F5 B5 A5 25 05 01 FF F7 F5 B5 A5 25 05 01 FF F7 F5 B5 A5 25 05 01 
      0113  FF F7 F5 B5 A5 25 05 01 FF F7 F5 B5 A5 25 05 01 FF F7 F5 B5 A5 25 05 01 FF F7 F5 B5 A5 25 05 01 
      0133  FF F7 F5 B5 A5 25 05 01 FF F7 F5 B5 A5 25 05 01 FF F7 F5 B5 A5 25 05 01 FF F7 F5 B5 A5 25 05 01 
      0153  FF F7 F5 B5 A5 25 05 01 FF F7 F5 B5 A5 25 05 01 FF F7 F5 B5 A5 25 05 01 
                        	db	$ff,$f7,$f5,$b5,$a5,$25,$05,$01,$ff,$f7,$f5,$b5,$a5,$25,$05,$01,$ff,$f7,$f5,$b5,$a5,$25,$05,$01,$ff,$f7,$f5,$b5,$a5,$25,$05,$01,$ff,$f7,$f5,$b5,$a5,$25,$05,$01,$ff,$f7,$f5,$b5,$a5,$25,$05,$01,$ff,$f7,$f5,$b5,$a5,$25,$05,$01,$ff,$f7,$f5,$b5,$a5,$25,$05,$01,$ff,$f7,$f5,$b5,$a5,$25,$05,$01,$ff,$f7,$f5,$b5,$a5,$25,$05,$01,$ff,$f7,$f5,$b5,$a5,$25,$05,$01,$ff,$f7,$f5,$b5,$a5,$25,$05,$01,$ff,$f7,$f5,$b5,$a5,$25,$05,$01,$ff,$f7,$f5,$b5,$a5,$25,$05,$01,$ff,$f7,$f5,$b5,$a5,$25,$05,$01
80    016B  FF F7 F5 B5 A5 25 05 01 FF F7 F5 B5 A5 25 05 01 FF F7 F5 B5 A5 25 05 01 FF F7 F5 B5 A5 25 05 01 
      018B  FF F7 F5 B5 A5 25 05 01 FF F7 F5 B5 A5 25 05 01 FF F7 F5 B5 A5 25 05 01 FF F7 F5 B5 A5 25 05 01 
      01AB  FF F7 F5 B5 A5 25 05 01 FF F7 F5 B5 A5 25 05 01 FF F7 F5 B5 A5 25 05 01 FF F7 F5 B5 A5 25 05 01 
      01CB  FF F7 F5 B5 A5 25 05 01 FF F7 F5 B5 A5 25 05 01 FF F7 F5 B5 A5 25 05 01 
                        	db	$ff,$f7,$f5,$b5,$a5,$25,$05,$01,$ff,$f7,$f5,$b5,$a5,$25,$05,$01,$ff,$f7,$f5,$b5,$a5,$25,$05,$01,$ff,$f7,$f5,$b5,$a5,$25,$05,$01,$ff,$f7,$f5,$b5,$a5,$25,$05,$01,$ff,$f7,$f5,$b5,$a5,$25,$05,$01,$ff,$f7,$f5,$b5,$a5,$25,$05,$01,$ff,$f7,$f5,$b5,$a5,$25,$05,$01,$ff,$f7,$f5,$b5,$a5,$25,$05,$01,$ff,$f7,$f5,$b5,$a5,$25,$05,$01,$ff,$f7,$f5,$b5,$a5,$25,$05,$01,$ff,$f7,$f5,$b5,$a5,$25,$05,$01,$ff,$f7,$f5,$b5,$a5,$25,$05,$01,$ff,$f7,$f5,$b5,$a5,$25,$05,$01,$ff,$f7,$f5,$b5,$a5,$25,$05,$01
81    01E3  FF F7 F5 B5 A5 25 05 01 FF F7 F5 B5 A5 25 05 01 FF F7 F5 B5 A5 25 05 01 FF F7 F5 B5 A5 25 05 01 
      0203  FF F7 F5 B5 A5 25 05 01 FF F7 F5 B5 A5 25 05 01 FF F7 F5 B5 A5 25 05 01 FF F7 F5 B5 A5 25 05 01 
      0223  FF F7 F5 B5 A5 25 05 01 FF F7 F5 B5 A5 25 05 01 FF F7 F5 B5 A5 25 05 01 FF F7 F5 B5 A5 25 05 01 
      0243  FF F7 F5 B5 A5 25 05 01 FF F7 F5 B5 A5 25 05 01 FF F7 F5 B5 A5 25 05 01 
                        	db	$ff,$f7,$f5,$b5,$a5,$25,$05,$01,$ff,$f7,$f5,$b5,$a5,$25,$05,$01,$ff,$f7,$f5,$b5,$a5,$25,$05,$01,$ff,$f7,$f5,$b5,$a5,$25,$05,$01,$ff,$f7,$f5,$b5,$a5,$25,$05,$01,$ff,$f7,$f5,$b5,$a5,$25,$05,$01,$ff,$f7,$f5,$b5,$a5,$25,$05,$01,$ff,$f7,$f5,$b5,$a5,$25,$05,$01,$ff,$f7,$f5,$b5,$a5,$25,$05,$01,$ff,$f7,$f5,$b5,$a5,$25,$05,$01,$ff,$f7,$f5,$b5,$a5,$25,$05,$01,$ff,$f7,$f5,$b5,$a5,$25,$05,$01,$ff,$f7,$f5,$b5,$a5,$25,$05,$01,$ff,$f7,$f5,$b5,$a5,$25,$05,$01,$ff,$f7,$f5,$b5,$a5,$25,$05,$01
82    025B  FF F7 F5 B5 A5 25 05 01 FF F7 F5 B5 A5 25 05 01 FF F7 F5 B5 A5 25 05 01 FF F7 F5 B5 A5 25 05 01 
      027B  FF F7 F5 B5 A5 25 05 01 FF F7 F5 B5 A5 25 05 01 FF F7 F5 B5 A5 25 05 01 FF F7 F5 B5 A5 25 05 01 
      029B  FF F7 F5 B5 A5 25 05 01 FF F7 F5 B5 A5 25 05 01 FF F7 F5 B5 A5 25 05 01 FF F7 F5 B5 A5 25 05 01 
      02BB  FF F7 F5 B5 A5 25 05 01 FF F7 F5 B5 A5 25 05 01 FF F7 F5 B5 A5 25 05 01 
                        	db	$ff,$f7,$f5,$b5,$a5,$25,$05,$01,$ff,$f7,$f5,$b5,$a5,$25,$05,$01,$ff,$f7,$f5,$b5,$a5,$25,$05,$01,$ff,$f7,$f5,$b5,$a5,$25,$05,$01,$ff,$f7,$f5,$b5,$a5,$25,$05,$01,$ff,$f7,$f5,$b5,$a5,$25,$05,$01,$ff,$f7,$f5,$b5,$a5,$25,$05,$01,$ff,$f7,$f5,$b5,$a5,$25,$05,$01,$ff,$f7,$f5,$b5,$a5,$25,$05,$01,$ff,$f7,$f5,$b5,$a5,$25,$05,$01,$ff,$f7,$f5,$b5,$a5,$25,$05,$01,$ff,$f7,$f5,$b5,$a5,$25,$05,$01,$ff,$f7,$f5,$b5,$a5,$25,$05,$01,$ff,$f7,$f5,$b5,$a5,$25,$05,$01,$ff,$f7,$f5,$b5,$a5,$25,$05,$01
83    02D3  FF F7 F5 B5 A5 25 05 01 FF F7 F5 B5 A5 25 05 01 FF F7 F5 B5 A5 25 05 01 FF F7 F5 B5 A5 25 05 01 
      02F3  FF F7 F5 B5 A5 25 05 01 FF F7 F5 B5 A5 25 05 01 FF F7 F5 B5 A5 25 05 01 FF F7 F5 B5 A5 25 05 01 
      0313  FF F7 F5 B5 A5 25 05 01 FF F7 F5 B5 A5 25 05 01 FF F7 F5 B5 A5 25 05 01 FF F7 F5 B5 A5 25 05 01 
      0333  FF F7 F5 B5 A5 25 05 01 FF F7 F5 B5 A5 25 05 01 FF F7 F5 B5 A5 25 05 01 
                        	db	$ff,$f7,$f5,$b5,$a5,$25,$05,$01,$ff,$f7,$f5,$b5,$a5,$25,$05,$01,$ff,$f7,$f5,$b5,$a5,$25,$05,$01,$ff,$f7,$f5,$b5,$a5,$25,$05,$01,$ff,$f7,$f5,$b5,$a5,$25,$05,$01,$ff,$f7,$f5,$b5,$a5,$25,$05,$01,$ff,$f7,$f5,$b5,$a5,$25,$05,$01,$ff,$f7,$f5,$b5,$a5,$25,$05,$01,$ff,$f7,$f5,$b5,$a5,$25,$05,$01,$ff,$f7,$f5,$b5,$a5,$25,$05,$01,$ff,$f7,$f5,$b5,$a5,$25,$05,$01,$ff,$f7,$f5,$b5,$a5,$25,$05,$01,$ff,$f7,$f5,$b5,$a5,$25,$05,$01,$ff,$f7,$f5,$b5,$a5,$25,$05,$01,$ff,$f7,$f5,$b5,$a5,$25,$05,$01
84    034B  FF F7 F5 B5 A5 25 05 01 FF F7 F5 B5 A5 25 05 01 FF F7 F5 B5 A5 25 05 01 FF F7 F5 B5 A5 25 05 01 
      036B  FF F7 F5 B5 A5 25 05 01 FF F7 F5 B5 A5 25 05 01 FF F7 F5 B5 A5 25 05 01 FF F7 F5 B5 A5 25 05 01 
      038B  FF F7 F5 B5 A5 25 05 01 FF F7 F5 B5 A5 25 05 01 FF F7 F5 B5 A5 25 05 01 FF F7 F5 B5 A5 25 05 01 
      03AB  FF F7 F5 B5 A5 25 05 01 FF F7 F5 B5 A5 25 05 01 FF F7 F5 B5 A5 25 05 01 
                        	db	$ff,$f7,$f5,$b5,$a5,$25,$05,$01,$ff,$f7,$f5,$b5,$a5,$25,$05,$01,$ff,$f7,$f5,$b5,$a5,$25,$05,$01,$ff,$f7,$f5,$b5,$a5,$25,$05,$01,$ff,$f7,$f5,$b5,$a5,$25,$05,$01,$ff,$f7,$f5,$b5,$a5,$25,$05,$01,$ff,$f7,$f5,$b5,$a5,$25,$05,$01,$ff,$f7,$f5,$b5,$a5,$25,$05,$01,$ff,$f7,$f5,$b5,$a5,$25,$05,$01,$ff,$f7,$f5,$b5,$a5,$25,$05,$01,$ff,$f7,$f5,$b5,$a5,$25,$05,$01,$ff,$f7,$f5,$b5,$a5,$25,$05,$01,$ff,$f7,$f5,$b5,$a5,$25,$05,$01,$ff,$f7,$f5,$b5,$a5,$25,$05,$01,$ff,$f7,$f5,$b5,$a5,$25,$05,$01
85    03C3  FF F7 F5 B5 A5 25 05 01 FF F7 F5 B5 A5 25 05 01 FF F7 F5 B5 A5 25 05 01 FF F7 F5 B5 A5 25 05 01 
      03E3  FF F7 F5 B5 A5 25 05 01 FF F7 F5 B5 A5 25 05 01 FF F7 F5 B5 A5 25 05 01 FF F7 F5 B5 A5 25 05 01 
      0403  FF F7 F5 B5 A5 25 05 01 FF F7 F5 B5 A5 25 05 01 FF F7 F5 B5 A5 25 05 01 FF F7 F5 B5 A5 25 05 01 
      0423  FF F7 F5 B5 A5 25 05 01 FF F7 F5 B5 A5 25 05 01 FF F7 F5 B5 A5 25 05 01 
                        	db	$ff,$f7,$f5,$b5,$a5,$25,$05,$01,$ff,$f7,$f5,$b5,$a5,$25,$05,$01,$ff,$f7,$f5,$b5,$a5,$25,$05,$01,$ff,$f7,$f5,$b5,$a5,$25,$05,$01,$ff,$f7,$f5,$b5,$a5,$25,$05,$01,$ff,$f7,$f5,$b5,$a5,$25,$05,$01,$ff,$f7,$f5,$b5,$a5,$25,$05,$01,$ff,$f7,$f5,$b5,$a5,$25,$05,$01,$ff,$f7,$f5,$b5,$a5,$25,$05,$01,$ff,$f7,$f5,$b5,$a5,$25,$05,$01,$ff,$f7,$f5,$b5,$a5,$25,$05,$01,$ff,$f7,$f5,$b5,$a5,$25,$05,$01,$ff,$f7,$f5,$b5,$a5,$25,$05,$01,$ff,$f7,$f5,$b5,$a5,$25,$05,$01,$ff,$f7,$f5,$b5,$a5,$25,$05,$01
86    043B  FF F7 F5 B5 A5 25 05 01 FF F7 F5 B5 A5 25 05 01 FF F7 F5 B5 A5 25 05 01 FF F7 F5 B5 A5 25 05 01 
      045B  FF F7 F5 B5 A5 25 05 01 FF F7 F5 B5 A5 25 05 01 FF F7 F5 B5 A5 25 05 01 FF F7 F5 B5 A5 25 05 01 
      047B  FF F7 F5 B5 A5 25 05 01 FF F7 F5 B5 A5 25 05 01 FF F7 F5 B5 A5 25 05 01 FF F7 F5 B5 A5 25 05 01 
      049B  FF F7 F5 B5 A5 25 05 01 FF F7 F5 B5 A5 25 05 01 FF F7 F5 B5 A5 25 05 01 
                        	db	$ff,$f7,$f5,$b5,$a5,$25,$05,$01,$ff,$f7,$f5,$b5,$a5,$25,$05,$01,$ff,$f7,$f5,$b5,$a5,$25,$05,$01,$ff,$f7,$f5,$b5,$a5,$25,$05,$01,$ff,$f7,$f5,$b5,$a5,$25,$05,$01,$ff,$f7,$f5,$b5,$a5,$25,$05,$01,$ff,$f7,$f5,$b5,$a5,$25,$05,$01,$ff,$f7,$f5,$b5,$a5,$25,$05,$01,$ff,$f7,$f5,$b5,$a5,$25,$05,$01,$ff,$f7,$f5,$b5,$a5,$25,$05,$01,$ff,$f7,$f5,$b5,$a5,$25,$05,$01,$ff,$f7,$f5,$b5,$a5,$25,$05,$01,$ff,$f7,$f5,$b5,$a5,$25,$05,$01,$ff,$f7,$f5,$b5,$a5,$25,$05,$01,$ff,$f7,$f5,$b5,$a5,$25,$05,$01
87    04B3  FF F7 F5 B5 A5 25 05 01 FF F7 F5 B5 A5 25 05 01 FF F7 F5 B5 A5 25 05 01 FF F7 F5 B5 A5 25 05 01 
      04D3  FF F7 F5 B5 A5 25 05 01 FF F7 F5 B5 A5 25 05 01 FF F7 F5 B5 A5 25 05 01 FF F7 F5 B5 A5 25 05 01 
      04F3  FF F7 F5 B5 A5 25 05 01 FF F7 F5 B5 A5 25 05 01 FF F7 F5 B5 A5 25 05 01 FF F7 F5 B5 A5 25 05 01 
      0513  FF F7 F5 B5 A5 25 05 01 FF F7 F5 B5 A5 25 05 01 FF F7 F5 B5 A5 25 05 01 
                        	db	$ff,$f7,$f5,$b5,$a5,$25,$05,$01,$ff,$f7,$f5,$b5,$a5,$25,$05,$01,$ff,$f7,$f5,$b5,$a5,$25,$05,$01,$ff,$f7,$f5,$b5,$a5,$25,$05,$01,$ff,$f7,$f5,$b5,$a5,$25,$05,$01,$ff,$f7,$f5,$b5,$a5,$25,$05,$01,$ff,$f7,$f5,$b5,$a5,$25,$05,$01,$ff,$f7,$f5,$b5,$a5,$25,$05,$01,$ff,$f7,$f5,$b5,$a5,$25,$05,$01,$ff,$f7,$f5,$b5,$a5,$25,$05,$01,$ff,$f7,$f5,$b5,$a5,$25,$05,$01,$ff,$f7,$f5,$b5,$a5,$25,$05,$01,$ff,$f7,$f5,$b5,$a5,$25,$05,$01,$ff,$f7,$f5,$b5,$a5,$25,$05,$01,$ff,$f7,$f5,$b5,$a5,$25,$05,$01
88    052B  FF F7 F5 B5 A5 25 05 01 FF F7 F5 B5 A5 25 05 01 FF F7 F5 B5 A5 25 05 01 FF F7 F5 B5 A5 25 05 01 
      054B  FF F7 F5 B5 A5 25 05 01 FF F7 F5 B5 A5 25 05 01 FF F7 F5 B5 A5 25 05 01 FF F7 F5 B5 A5 25 05 01 
      056B  FF F7 F5 B5 A5 25 05 01 FF F7 F5 B5 A5 25 05 01 FF F7 F5 B5 A5 25 05 01 FF F7 F5 B5 A5 25 05 01 
      058B  FF F7 F5 B5 A5 25 05 01 FF F7 F5 B5 A5 25 05 01 FF F7 F5 B5 A5 25 05 01 
                        	db	$ff,$f7,$f5,$b5,$a5,$25,$05,$01,$ff,$f7,$f5,$b5,$a5,$25,$05,$01,$ff,$f7,$f5,$b5,$a5,$25,$05,$01,$ff,$f7,$f5,$b5,$a5,$25,$05,$01,$ff,$f7,$f5,$b5,$a5,$25,$05,$01,$ff,$f7,$f5,$b5,$a5,$25,$05,$01,$ff,$f7,$f5,$b5,$a5,$25,$05,$01,$ff,$f7,$f5,$b5,$a5,$25,$05,$01,$ff,$f7,$f5,$b5,$a5,$25,$05,$01,$ff,$f7,$f5,$b5,$a5,$25,$05,$01,$ff,$f7,$f5,$b5,$a5,$25,$05,$01,$ff,$f7,$f5,$b5,$a5,$25,$05,$01,$ff,$f7,$f5,$b5,$a5,$25,$05,$01,$ff,$f7,$f5,$b5,$a5,$25,$05,$01,$ff,$f7,$f5,$b5,$a5,$25,$05,$01
89    05A3              
